EXPORTS
	_Z10DebugPrintiRK6TDesC8 @ 1 NONAME ; CODE
	_Z10DebugPrintiRK7TDesC16 @ 2 NONAME ; CODE
	_ZN10CVMManager8FullPathERK7TDesC16 @ 3 NONAME ; CODE
	_ZN16REComPlusSession21CreateImplementationLE4TUidS0_Pv @ 4 NONAME ; CODE
	_ZN16REComPlusSession23DestroyedImplementationE4TUid @ 5 NONAME ; CODE
	_ZTI10CJVMRunner @ 6 NONAME ; DATA
	_ZTI10CVMManager @ 7 NONAME ; DATA
	_ZTI11CAPNManager @ 8 NONAME ; DATA
	_ZTI11CCommDBUtil @ 9 NONAME ; DATA
	_ZTI11CMIDPCanvas @ 10 NONAME ; DATA
	_ZTI11CProperties @ 11 NONAME ; DATA
	_ZTI12CAPNDatabase @ 12 NONAME ; DATA
	_ZTI12CAudioPlayer @ 13 NONAME ; DATA
	_ZTI12CIndexedText @ 14 NONAME ; DATA
	_ZTI13CBaseMIDPView @ 15 NONAME ; DATA
	_ZTI13CFEPInputCore @ 16 NONAME ; DATA
	_ZTI13CHostResolver @ 17 NONAME ; DATA
	_ZTI13CSocketEngine @ 18 NONAME ; DATA
	_ZTI13CSocketReader @ 19 NONAME ; DATA
	_ZTI13CSocketWriter @ 20 NONAME ; DATA
	_ZTI13CTimeOutTimer @ 21 NONAME ; DATA
	_ZTI14CCommDBWrapper @ 22 NONAME ; DATA
	_ZTI14CSocketFactory @ 23 NONAME ; DATA
	_ZTI16CDirectoryLister @ 24 NONAME ; DATA
	_ZTI16CFEPInputControl @ 25 NONAME ; DATA
	_ZTI16CMIAPSessionImpl @ 26 NONAME ; DATA
	_ZTI16CMIDPFontManager @ 27 NONAME ; DATA
	_ZTI16CVMObjectFactory @ 28 NONAME ; DATA
	_ZTI17CTelephonyWrapper @ 29 NONAME ; DATA
	_ZTI18CMidpScreenControl @ 30 NONAME ; DATA
	_ZTI19CCurrentNetworkInfo @ 31 NONAME ; DATA
	_ZTI19CNetworkInfoManager @ 32 NONAME ; DATA
	_ZTI20CDataAccessStatement @ 33 NONAME ; DATA
	_ZTI20CVMTimerStateMachine @ 34 NONAME ; DATA
	_ZTI21CDataAccessConnection @ 35 NONAME ; DATA
	_ZTI22CRegisteredNetworkInfo @ 36 NONAME ; DATA
	_ZTI24CCommsDbTableViewWrapper @ 37 NONAME ; DATA
	_ZTI25CConnectionMonitorWrapper @ 38 NONAME ; DATA
	_ZTI7CLogger @ 39 NONAME ; DATA
	_ZTI7CSocket @ 40 NONAME ; DATA
	_ZTI7CThread @ 41 NONAME ; DATA
	_ZTI7CTicker @ 42 NONAME ; DATA
	_ZTI8CIAPInfo @ 43 NONAME ; DATA
	_ZTI8CMIDPApp @ 44 NONAME ; DATA
	_ZTIN7CThread14CThreadStopperE @ 45 NONAME ; DATA
	_ZTV10CJVMRunner @ 46 NONAME ; DATA
	_ZTV10CVMManager @ 47 NONAME ; DATA
	_ZTV11CAPNManager @ 48 NONAME ; DATA
	_ZTV11CCommDBUtil @ 49 NONAME ; DATA
	_ZTV11CMIDPCanvas @ 50 NONAME ; DATA
	_ZTV11CProperties @ 51 NONAME ; DATA
	_ZTV12CAPNDatabase @ 52 NONAME ; DATA
	_ZTV12CAudioPlayer @ 53 NONAME ; DATA
	_ZTV12CIndexedText @ 54 NONAME ; DATA
	_ZTV13CBaseMIDPView @ 55 NONAME ; DATA
	_ZTV13CFEPInputCore @ 56 NONAME ; DATA
	_ZTV13CHostResolver @ 57 NONAME ; DATA
	_ZTV13CSocketEngine @ 58 NONAME ; DATA
	_ZTV13CSocketReader @ 59 NONAME ; DATA
	_ZTV13CSocketWriter @ 60 NONAME ; DATA
	_ZTV13CTimeOutTimer @ 61 NONAME ; DATA
	_ZTV14CCommDBWrapper @ 62 NONAME ; DATA
	_ZTV14CSocketFactory @ 63 NONAME ; DATA
	_ZTV16CDirectoryLister @ 64 NONAME ; DATA
	_ZTV16CFEPInputControl @ 65 NONAME ; DATA
	_ZTV16CMIAPSessionImpl @ 66 NONAME ; DATA
	_ZTV16CMIDPFontManager @ 67 NONAME ; DATA
	_ZTV16CVMObjectFactory @ 68 NONAME ; DATA
	_ZTV17CTelephonyWrapper @ 69 NONAME ; DATA
	_ZTV18CMidpScreenControl @ 70 NONAME ; DATA
	_ZTV19CCurrentNetworkInfo @ 71 NONAME ; DATA
	_ZTV19CNetworkInfoManager @ 72 NONAME ; DATA
	_ZTV20CDataAccessStatement @ 73 NONAME ; DATA
	_ZTV20CVMTimerStateMachine @ 74 NONAME ; DATA
	_ZTV21CDataAccessConnection @ 75 NONAME ; DATA
	_ZTV22CRegisteredNetworkInfo @ 76 NONAME ; DATA
	_ZTV24CCommsDbTableViewWrapper @ 77 NONAME ; DATA
	_ZTV25CConnectionMonitorWrapper @ 78 NONAME ; DATA
	_ZTV7CLogger @ 79 NONAME ; DATA
	_ZTV7CSocket @ 80 NONAME ; DATA
	_ZTV7CThread @ 81 NONAME ; DATA
	_ZTV7CTicker @ 82 NONAME ; DATA
	_ZTV8CIAPInfo @ 83 NONAME ; DATA
	_ZTV8CMIDPApp @ 84 NONAME ; DATA
	_ZTVN7CThread14CThreadStopperE @ 85 NONAME ; DATA

