EXPORTS
	??0CAPNDatabase@@QAE@XZ @ 1 NONAME ; CAPNDatabase::CAPNDatabase(void)
	??0CIndexedText@@QAE@HPAVHBufC16@@@Z @ 2 NONAME ; CIndexedText::CIndexedText(int, class HBufC16 *)
	??1CAPNDatabase@@UAE@XZ @ 3 NONAME ; CAPNDatabase::~CAPNDatabase(void)
	?ActiveIAP@CIAPInfo@@QAEXAAVTDes16@@@Z @ 4 NONAME ; void CIAPInfo::ActiveIAP(class TDes16 &)
	?CancelFepInlineEdit@CFEPInputCore@@QAEXXZ @ 5 NONAME ; void CFEPInputCore::CancelFepInlineEdit(void)
	?Close@CAPNDatabase@@UAEXXZ @ 6 NONAME ; void CAPNDatabase::Close(void)
	?Count@CAPNDatabase@@UAEHXZ @ 7 NONAME ; int CAPNDatabase::Count(void)
	?CreateImplementationL@REComPlusSession@@SAPAVMUnknown@@VTUid@@0PAX@Z @ 8 NONAME ; class MUnknown * REComPlusSession::CreateImplementationL(class TUid, class TUid, void *)
	?CurrentCountryCode@CNetworkInfoManager@@QAEABVTDesC16@@XZ @ 9 NONAME ; class TDesC16 const & CNetworkInfoManager::CurrentCountryCode(void)
	?CurrentNetworkID@CNetworkInfoManager@@QAEABVTDesC16@@XZ @ 10 NONAME ; class TDesC16 const & CNetworkInfoManager::CurrentNetworkID(void)
	?DebugPrint@@YAXHABVTDesC16@@@Z @ 11 NONAME ; void DebugPrint(int, class TDesC16 const &)
	?DebugPrint@@YAXHABVTDesC8@@@Z @ 12 NONAME ; void DebugPrint(int, class TDesC8 const &)
	?DestroyedImplementation@REComPlusSession@@SAXVTUid@@@Z @ 13 NONAME ; void REComPlusSession::DestroyedImplementation(class TUid)
	?DoCommitFepInlineEditL@CFEPInputCore@@QAEXXZ @ 14 NONAME ; void CFEPInputCore::DoCommitFepInlineEditL(void)
	?DocumentLengthForFep@CFEPInputCore@@QBEHXZ @ 15 NONAME ; int CFEPInputCore::DocumentLengthForFep(void) const
	?FullPath@CVMManager@@SA?BV?$TBuf@$0BAA@@@ABVTDesC16@@@Z @ 16 NONAME ; class TBuf<256> const CVMManager::FullPath(class TDesC16 const &)
	?GetCursorSelectionForFep@CFEPInputCore@@QBEXAAVTCursorSelection@@@Z @ 17 NONAME ; void CFEPInputCore::GetCursorSelectionForFep(class TCursorSelection &) const
	?GetEntry@CAPNDatabase@@UAEHABVTDesC16@@0@Z @ 18 NONAME ; int CAPNDatabase::GetEntry(class TDesC16 const &, class TDesC16 const &)
	?GetNext@CAPNDatabase@@UAEHABVTDesC16@@0H@Z @ 19 NONAME ; int CAPNDatabase::GetNext(class TDesC16 const &, class TDesC16 const &, int)
	?GetNextState@CFEPInputCore@@QAEHXZ @ 20 NONAME ; int CFEPInputCore::GetNextState(void)
	?GetPlatformKeyMapperL@TKeyMapperFactory@@SAPAVMKeyMapper@@XZ @ 21 NONAME ; class MKeyMapper * TKeyMapperFactory::GetPlatformKeyMapperL(void)
	?IsCallOngoing@CNetworkInfoManager@@QAEHXZ @ 22 NONAME ; int CNetworkInfoManager::IsCallOngoing(void)
	?IsHomeNetwork@CNetworkInfoManager@@QAEHXZ @ 23 NONAME ; int CNetworkInfoManager::IsHomeNetwork(void)
	?IsRegisteredOnNetwork@CNetworkInfoManager@@QAEHXZ @ 24 NONAME ; int CNetworkInfoManager::IsRegisteredOnNetwork(void)
	?LoadDatabaseL@CAPNDatabase@@UAEXXZ @ 25 NONAME ; void CAPNDatabase::LoadDatabaseL(void)
	?NewL@CAPNManager@@SAPAV1@PAVMProperties@@@Z @ 26 NONAME ; class CAPNManager * CAPNManager::NewL(class MProperties *)
	?NewL@CCommDBUtil@@SAPAV1@XZ @ 27 NONAME ; class CCommDBUtil * CCommDBUtil::NewL(void)
	?NewL@CDataAccessConnection@@SAPAVMDataAccessConnection@@PAX@Z @ 28 NONAME ; class MDataAccessConnection * CDataAccessConnection::NewL(void *)
	?NewL@CFEPInputCore@@SAPAV1@PAVCIndexedText@@PAVMFEPInputCoreObserver@@PAVMKeyMapper@@@Z @ 29 NONAME ; class CFEPInputCore * CFEPInputCore::NewL(class CIndexedText *, class MFEPInputCoreObserver *, class MKeyMapper *)
	?NewL@CIAPInfo@@SAPAV1@XZ @ 30 NONAME ; class CIAPInfo * CIAPInfo::NewL(void)
	?NewL@CNetworkInfoManager@@SAPAV1@XZ @ 31 NONAME ; class CNetworkInfoManager * CNetworkInfoManager::NewL(void)
	?NewL@CProperties@@SAPAVMProperties@@PAX@Z @ 32 NONAME ; class MProperties * CProperties::NewL(void *)
	?NewL@CVMTimerStateMachine@@SAPAVMUnknown@@PAX@Z @ 33 NONAME ; class MUnknown * CVMTimerStateMachine::NewL(void *)
	?OfferKeyEventL@CFEPInputCore@@QAE?AW4TKeyResponse@@ABUTKeyEvent@@W4TEventCode@@@Z @ 34 NONAME ; enum TKeyResponse CFEPInputCore::OfferKeyEventL(struct TKeyEvent const &, enum TEventCode)
	?ScanL@CIAPInfo@@QAEXXZ @ 35 NONAME ; void CIAPInfo::ScanL(void)
	?SetAutoAPN@CAPNManager@@QAEXXZ @ 36 NONAME ; void CAPNManager::SetAutoAPN(void)
	?SetDelegate@REComPlusSession@@SAXP6APAVMUnknown@@VTUid@@0PAX@Z@Z @ 37 NONAME ; void REComPlusSession::SetDelegate(class MUnknown * (*)(class TUid, class TUid, void *))
	?SetObserver@CNetworkInfoManager@@QAEXPAVMNetWorkInfoObserver@@@Z @ 38 NONAME ; void CNetworkInfoManager::SetObserver(class MNetWorkInfoObserver *)
	?StartFepInlineEditL@CFEPInputCore@@QAEXABVTDesC16@@HABVTCursorSelection@@@Z @ 39 NONAME ; void CFEPInputCore::StartFepInlineEditL(class TDesC16 const &, int, class TCursorSelection const &)
	?StartL@CNetworkInfoManager@@QAEXXZ @ 40 NONAME ; void CNetworkInfoManager::StartL(void)
	?Stop@CNetworkInfoManager@@QAEXXZ @ 41 NONAME ; void CNetworkInfoManager::Stop(void)
	?TextPtr@CIndexedText@@QAEPAVHBufC16@@XZ @ 42 NONAME ; class HBufC16 * CIndexedText::TextPtr(void)
	?UpdateFepInlineTextL@CFEPInputCore@@QAEXABVTDesC16@@H@Z @ 43 NONAME ; void CFEPInputCore::UpdateFepInlineTextL(class TDesC16 const &, int)
	?DocumentMaximumLengthForFep@CFEPInputCore@@QBEHXZ @ 44 NONAME ; int CFEPInputCore::DocumentMaximumLengthForFep(void) const

