EXPORTS
	?CreateImplementationL@REComPlusSession@@SAPAVMUnknown@@VTUid@@0PAX@Z @ 1 NONAME ; class MUnknown * REComPlusSession::CreateImplementationL(class TUid, class TUid, void *)
	?DebugPrint@@YAXHABVTDesC16@@@Z @ 2 NONAME ; void DebugPrint(int, class TDesC16 const &)
	?DebugPrint@@YAXHABVTDesC8@@@Z @ 3 NONAME ; void DebugPrint(int, class TDesC8 const &)
	?DestroyedImplementation@REComPlusSession@@SAXVTUid@@@Z @ 4 NONAME ; void REComPlusSession::DestroyedImplementation(class TUid)
	?FullPath@CVMManager@@SA?BV?$TBuf@$0BAA@@@ABVTDesC16@@@Z @ 5 NONAME ; class TBuf<256> const CVMManager::FullPath(class TDesC16 const &)
	?NewL@CDataAccessConnection@@SAPAVMDataAccessConnection@@PAX@Z @ 6 NONAME ; class MDataAccessConnection * CDataAccessConnection::NewL(void *)
	?NewL@CProperties@@SAPAVMProperties@@PAX@Z @ 7 NONAME ; class MProperties * CProperties::NewL(void *)
	?NewL@CVMTimerStateMachine@@SAPAVMUnknown@@PAX@Z @ 8 NONAME ; class MUnknown * CVMTimerStateMachine::NewL(void *)
	?SetDelegate@REComPlusSession@@SAXP6APAVMUnknown@@VTUid@@0PAX@Z@Z @ 9 NONAME ; void REComPlusSession::SetDelegate(class MUnknown * (*)(class TUid, class TUid, void *))
	??0CIndexedText@@QAE@HPAVHBufC16@@@Z @ 10 NONAME ; CIndexedText::CIndexedText(int, class HBufC16 *)
	?CancelFepInlineEdit@CFEPInputCore@@QAEXXZ @ 11 NONAME ; void CFEPInputCore::CancelFepInlineEdit(void)
	?DoCommitFepInlineEditL@CFEPInputCore@@QAEXXZ @ 12 NONAME ; void CFEPInputCore::DoCommitFepInlineEditL(void)
	?DocumentLengthForFep@CFEPInputCore@@QBEHXZ @ 13 NONAME ; int CFEPInputCore::DocumentLengthForFep(void) const
	?GetCursorSelectionForFep@CFEPInputCore@@QBEXAAVTCursorSelection@@@Z @ 14 NONAME ; void CFEPInputCore::GetCursorSelectionForFep(class TCursorSelection &) const
	?GetNextState@CFEPInputCore@@QAEHXZ @ 15 NONAME ; int CFEPInputCore::GetNextState(void)
	?GetPlatformKeyMapperL@TKeyMapperFactory@@SAPAVMKeyMapper@@XZ @ 16 NONAME ; class MKeyMapper * TKeyMapperFactory::GetPlatformKeyMapperL(void)
	?NewL@CFEPInputCore@@SAPAV1@PAVCIndexedText@@PAVMFEPInputCoreObserver@@PAVMKeyMapper@@@Z @ 17 NONAME ; class CFEPInputCore * CFEPInputCore::NewL(class CIndexedText *, class MFEPInputCoreObserver *, class MKeyMapper *)
	?OfferKeyEventL@CFEPInputCore@@QAE?AW4TKeyResponse@@ABUTKeyEvent@@W4TEventCode@@@Z @ 18 NONAME ; enum TKeyResponse CFEPInputCore::OfferKeyEventL(struct TKeyEvent const &, enum TEventCode)
	?StartFepInlineEditL@CFEPInputCore@@QAEXABVTDesC16@@HABVTCursorSelection@@@Z @ 19 NONAME ; void CFEPInputCore::StartFepInlineEditL(class TDesC16 const &, int, class TCursorSelection const &)
	?TextPtr@CIndexedText@@QAEPAVHBufC16@@XZ @ 20 NONAME ; class HBufC16 * CIndexedText::TextPtr(void)
	?UpdateFepInlineTextL@CFEPInputCore@@QAEXABVTDesC16@@H@Z @ 21 NONAME ; void CFEPInputCore::UpdateFepInlineTextL(class TDesC16 const &, int)
	?DocumentMaximumLengthForFep@CFEPInputCore@@QBEHXZ @ 22 NONAME ; int CFEPInputCore::DocumentMaximumLengthForFep(void) const
	_E32Dll=__E32Dll	; Entry point for emulation

