EXPORTS
	_Z10DebugPrintiRK6TDesC8 @ 1 NONAME ; CODE
	_Z10DebugPrintiRK7TDesC16 @ 2 NONAME ; CODE
	_ZN10CVMManager8FullPathERK7TDesC16 @ 3 NONAME ; CODE
	_ZN16REComPlusSession21CreateImplementationLE4TUidS0_Pv @ 4 NONAME ; CODE
	_ZN16REComPlusSession23DestroyedImplementationE4TUid @ 5 NONAME ; CODE
	_ZTI10CJVMRunner @ 6 NONAME ; DATA
	_ZTI10CVMManager @ 7 NONAME ; DATA
	_ZTI11CMIDPCanvas @ 8 NONAME ; DATA
	_ZTI11CProperties @ 9 NONAME ; DATA
	_ZTI12CIndexedText @ 10 NONAME ; DATA
	_ZTI13CBaseMIDPView @ 11 NONAME ; DATA
	_ZTI13CHostResolver @ 12 NONAME ; DATA
	_ZTI13CSocketEngine @ 13 NONAME ; DATA
	_ZTI13CSocketReader @ 14 NONAME ; DATA
	_ZTI13CSocketWriter @ 15 NONAME ; DATA
	_ZTI13CTimeOutTimer @ 16 NONAME ; DATA
	_ZTI14CSocketFactory @ 17 NONAME ; DATA
	_ZTI16CDirectoryLister @ 18 NONAME ; DATA
	_ZTI16CFEPInputControl @ 19 NONAME ; DATA
	_ZTI16CMIDPFontManager @ 20 NONAME ; DATA
	_ZTI16CVMObjectFactory @ 21 NONAME ; DATA
	_ZTI20CDataAccessStatement @ 22 NONAME ; DATA
	_ZTI20CVMTimerStateMachine @ 23 NONAME ; DATA
	_ZTI21CDataAccessConnection @ 24 NONAME ; DATA
	_ZTI7CLogger @ 25 NONAME ; DATA
	_ZTI7CSocket @ 26 NONAME ; DATA
	_ZTI7CThread @ 27 NONAME ; DATA
	_ZTI7CTicker @ 28 NONAME ; DATA
	_ZTI8CMIDPApp @ 29 NONAME ; DATA
	_ZTIN7CThread14CThreadStopperE @ 30 NONAME ; DATA
	_ZTV10CJVMRunner @ 31 NONAME ; DATA
	_ZTV10CVMManager @ 32 NONAME ; DATA
	_ZTV11CMIDPCanvas @ 33 NONAME ; DATA
	_ZTV11CProperties @ 34 NONAME ; DATA
	_ZTV12CIndexedText @ 35 NONAME ; DATA
	_ZTV13CBaseMIDPView @ 36 NONAME ; DATA
	_ZTV13CHostResolver @ 37 NONAME ; DATA
	_ZTV13CSocketEngine @ 38 NONAME ; DATA
	_ZTV13CSocketReader @ 39 NONAME ; DATA
	_ZTV13CSocketWriter @ 40 NONAME ; DATA
	_ZTV13CTimeOutTimer @ 41 NONAME ; DATA
	_ZTV14CSocketFactory @ 42 NONAME ; DATA
	_ZTV16CDirectoryLister @ 43 NONAME ; DATA
	_ZTV16CFEPInputControl @ 44 NONAME ; DATA
	_ZTV16CMIDPFontManager @ 45 NONAME ; DATA
	_ZTV16CVMObjectFactory @ 46 NONAME ; DATA
	_ZTV20CDataAccessStatement @ 47 NONAME ; DATA
	_ZTV20CVMTimerStateMachine @ 48 NONAME ; DATA
	_ZTV21CDataAccessConnection @ 49 NONAME ; DATA
	_ZTV7CLogger @ 50 NONAME ; DATA
	_ZTV7CSocket @ 51 NONAME ; DATA
	_ZTV7CThread @ 52 NONAME ; DATA
	_ZTV7CTicker @ 53 NONAME ; DATA
	_ZTV8CMIDPApp @ 54 NONAME ; DATA
	_ZTVN7CThread14CThreadStopperE @ 55 NONAME ; DATA

